; Function Attrs: nounwind uwtable
define ptr @l_Lean_Grind_CommRing_Poly_mulConst_x27___boxed(ptr noundef %0, ptr noundef %1, ptr noundef %2) local_unnamed_addr #1 {
  %4 = ptrtoint ptr %2 to i64
  %5 = and i64 %4, 1
  %.not.i12.i = icmp eq i64 %5, 0
  br i1 %.not.i12.i, label %9, label %6

6:                                                ; preds = %3
  %7 = lshr i64 %4, 1
  %8 = trunc i64 %7 to i32
  br label %lean_obj_tag.exit.i

9:                                                ; preds = %3
  %10 = getelementptr i8, ptr %2, i64 4
  %.val.i.i = load i32, ptr %10, align 4
  %11 = lshr i32 %.val.i.i, 24
  br label %lean_obj_tag.exit.i

lean_obj_tag.exit.i:                              ; preds = %9, %6
  %.0.i.i = phi i32 [ %8, %6 ], [ %11, %9 ]
  %12 = icmp eq i32 %.0.i.i, 0
  br i1 %12, label %13, label %15

13:                                               ; preds = %lean_obj_tag.exit.i
  %14 = tail call ptr @l_Lean_Grind_CommRing_Poly_mulConst(ptr noundef %1, ptr noundef %0) #6
  br label %l_Lean_Grind_CommRing_Poly_mulConst_x27.exit

15:                                               ; preds = %lean_obj_tag.exit.i
  %16 = getelementptr inbounds nuw i8, ptr %2, i64 8
  %17 = load ptr, ptr %16, align 8, !tbaa !6
  %18 = ptrtoint ptr %17 to i64
  %19 = and i64 %18, 1
  %.not.i5 = icmp eq i64 %19, 0
  br i1 %.not.i5, label %20, label %lean_inc.exit.i

20:                                               ; preds = %15
  %.val.i13.i = load i32, ptr %17, align 4, !tbaa !10
  %21 = icmp sgt i32 %.val.i13.i, 0
  br i1 %21, label %22, label %24, !prof !5

22:                                               ; preds = %20
  %23 = add nuw i32 %.val.i13.i, 1
  store i32 %23, ptr %17, align 4, !tbaa !10
  br label %lean_inc.exit.i

24:                                               ; preds = %20
  %.not.i14.i = icmp eq i32 %.val.i13.i, 0
  br i1 %.not.i14.i, label %lean_inc.exit.i, label %25

25:                                               ; preds = %24
  tail call void @lean_inc_ref_cold(ptr noundef nonnull %17) #6
  br label %lean_inc.exit.i

lean_inc.exit.i:                                  ; preds = %25, %24, %22, %15
  br i1 %.not.i12.i, label %26, label %lean_dec.exit.i

26:                                               ; preds = %lean_inc.exit.i
  %27 = load i32, ptr %2, align 4, !tbaa !10
  %28 = icmp sgt i32 %27, 1
  br i1 %28, label %29, label %31, !prof !5

29:                                               ; preds = %26
  %30 = add nsw i32 %27, -1
  store i32 %30, ptr %2, align 4, !tbaa !10
  br label %lean_dec.exit.i

31:                                               ; preds = %26
  %.not.i.i = icmp eq i32 %27, 0
  br i1 %.not.i.i, label %lean_dec.exit.i, label %32

32:                                               ; preds = %31
  tail call void @lean_dec_ref_cold(ptr noundef nonnull %2) #6
  br label %lean_dec.exit.i

lean_dec.exit.i:                                  ; preds = %32, %31, %29, %lean_inc.exit.i
  %33 = tail call ptr @l_Lean_Grind_CommRing_Poly_mulConstC(ptr noundef %1, ptr noundef %0, ptr noundef %17) #6
  br label %l_Lean_Grind_CommRing_Poly_mulConst_x27.exit

l_Lean_Grind_CommRing_Poly_mulConst_x27.exit:     ; preds = %13, %lean_dec.exit.i
  %.0.i = phi ptr [ %14, %13 ], [ %33, %lean_dec.exit.i ]
  %34 = ptrtoint ptr %1 to i64
  %35 = and i64 %34, 1
  %.not = icmp eq i64 %35, 0
  br i1 %.not, label %36, label %lean_dec.exit

36:                                               ; preds = %l_Lean_Grind_CommRing_Poly_mulConst_x27.exit
  %37 = load i32, ptr %1, align 4, !tbaa !10
  %38 = icmp sgt i32 %37, 1
  br i1 %38, label %39, label %41, !prof !5

39:                                               ; preds = %36
  %40 = add nsw i32 %37, -1
  store i32 %40, ptr %1, align 4, !tbaa !10
  br label %lean_dec.exit

41:                                               ; preds = %36
  %.not.i = icmp eq i32 %37, 0
  br i1 %.not.i, label %lean_dec.exit, label %42

42:                                               ; preds = %41
  tail call void @lean_dec_ref_cold(ptr noundef nonnull %1) #6
  br label %lean_dec.exit

lean_dec.exit:                                    ; preds = %42, %41, %39, %l_Lean_Grind_CommRing_Poly_mulConst_x27.exit
  ret ptr %.0.i
}